target datalayout = "e-m:e-p270:32:32-p271:32:32-p272:64:64-i64:64-i128:128-f80:128-n8:16:32:64-S128"
target triple = "x86_64-pc-linux-gnu"

%struct.diff_options = type { ptr, ptr, i32, i32, ptr, i32, ptr, i64, i64, ptr, ptr, ptr, ptr, %struct.diff_flags, i32, i32, i32, i32, i32, i32, i32, i32, i32, i32, i32, i32, i32, i32, i32, i32, i32, i32, i32, i32, i32, i32, ptr, i32, ptr, i32, i32, ptr, i64, i64, i32, i32, i32, i32, ptr, i32, i32, ptr, i32, i32, ptr, ptr, i32, [3 x i8], %struct.pathspec, ptr, ptr, ptr, ptr, ptr, ptr, ptr, ptr, i32, ptr, i32, i32, ptr, ptr, i32 }
%struct.diff_flags = type { i32, i32, i32, i32, i32, i32, i32, i32, i32, i32, i32, i32, i32, i32, i32, i32, i32, i32, i32, i32, i32, i32, i32, i32, i32, i32, i32, i32, i32, i32, i32, i32, i32, i32, i32 }
%struct.pathspec = type { i32, i8, i32, i32, ptr }
%struct.option = type { i32, i32, ptr, ptr, ptr, ptr, i32, ptr, i64, ptr, i64, ptr }

@.str.3 = private unnamed_addr constant [6 x i8] c"myers\00", align 1
@.str.4 = private unnamed_addr constant [8 x i8] c"default\00", align 1
@.str.5 = private unnamed_addr constant [8 x i8] c"minimal\00", align 1
@.str.6 = private unnamed_addr constant [9 x i8] c"patience\00", align 1
@.str.7 = private unnamed_addr constant [10 x i8] c"histogram\00", align 1
@.str.41 = private unnamed_addr constant [1 x i8] zeroinitializer, align 1
@.str.256 = private unnamed_addr constant [7 x i8] c"diff.c\00", align 1
@git_gettext_enabled = external global i32, align 4
@.str.331 = private unnamed_addr constant [41 x i8] c"option callback does not expect negation\00", align 1
@.str.345 = private unnamed_addr constant [77 x i8] c"option diff-algorithm accepts \22myers\22, \22minimal\22, \22patience\22 and \22histogram\22\00", align 1

; Function Attrs: nounwind uwtable
define dso_local i64 @parse_algorithm_value(ptr noundef %0) #0 {
  %2 = alloca i64, align 8
  %3 = alloca ptr, align 8
  store ptr %0, ptr %3, align 8, !tbaa !9
  %4 = load ptr, ptr %3, align 8, !tbaa !9
  %5 = icmp ne ptr %4, null
  br i1 %5, label %7, label %6

6:                                                ; preds = %1
  store i64 -1, ptr %2, align 8
  br label %36

7:                                                ; preds = %1
  %8 = load ptr, ptr %3, align 8, !tbaa !9
  %9 = call i32 @strcasecmp(ptr noundef %8, ptr noundef @.str.3) #11
  %10 = icmp ne i32 %9, 0
  br i1 %10, label %11, label %15

11:                                               ; preds = %7
  %12 = load ptr, ptr %3, align 8, !tbaa !9
  %13 = call i32 @strcasecmp(ptr noundef %12, ptr noundef @.str.4) #11
  %14 = icmp ne i32 %13, 0
  br i1 %14, label %16, label %15

15:                                               ; preds = %11, %7
  store i64 0, ptr %2, align 8
  br label %36

16:                                               ; preds = %11
  %17 = load ptr, ptr %3, align 8, !tbaa !9
  %18 = call i32 @strcasecmp(ptr noundef %17, ptr noundef @.str.5) #11
  %19 = icmp ne i32 %18, 0
  br i1 %19, label %21, label %20

20:                                               ; preds = %16
  store i64 1, ptr %2, align 8
  br label %36

21:                                               ; preds = %16
  %22 = load ptr, ptr %3, align 8, !tbaa !9
  %23 = call i32 @strcasecmp(ptr noundef %22, ptr noundef @.str.6) #11
  %24 = icmp ne i32 %23, 0
  br i1 %24, label %26, label %25

25:                                               ; preds = %21
  store i64 16384, ptr %2, align 8
  br label %36

26:                                               ; preds = %21
  %27 = load ptr, ptr %3, align 8, !tbaa !9
  %28 = call i32 @strcasecmp(ptr noundef %27, ptr noundef @.str.7) #11
  %29 = icmp ne i32 %28, 0
  br i1 %29, label %31, label %30

30:                                               ; preds = %26
  store i64 32768, ptr %2, align 8
  br label %36

31:                                               ; preds = %26
  br label %32

32:                                               ; preds = %31
  br label %33

33:                                               ; preds = %32
  br label %34

34:                                               ; preds = %33
  br label %35

35:                                               ; preds = %34
  store i64 -1, ptr %2, align 8
  br label %36

36:                                               ; preds = %35, %30, %25, %20, %15, %6
  %37 = load i64, ptr %2, align 8
  ret i64 %37
}

; Function Attrs: inlinehint nounwind uwtable
define internal i32 @const_error() #2 {
  ret i32 -1
}

; Function Attrs: inlinehint nounwind uwtable
define internal ptr @_(ptr noundef %0) #2 {
  %2 = alloca ptr, align 8
  %3 = alloca ptr, align 8
  store ptr %0, ptr %3, align 8, !tbaa !9
  %4 = load ptr, ptr %3, align 8, !tbaa !9
  %5 = load i8, ptr %4, align 1, !tbaa !48
  %6 = icmp ne i8 %5, 0
  br i1 %6, label %8, label %7

7:                                                ; preds = %1
  store ptr @.str.41, ptr %2, align 8
  br label %16

8:                                                ; preds = %1
  %9 = load i32, ptr @git_gettext_enabled, align 4, !tbaa !16
  %10 = icmp ne i32 %9, 0
  br i1 %10, label %13, label %11

11:                                               ; preds = %8
  %12 = load ptr, ptr %3, align 8, !tbaa !9
  store ptr %12, ptr %2, align 8
  br label %16

13:                                               ; preds = %8
  %14 = load ptr, ptr %3, align 8, !tbaa !9
  %15 = call ptr @dcgettext(ptr noundef null, ptr noundef %14, i32 noundef 5) #10
  store ptr %15, ptr %2, align 8
  br label %16

16:                                               ; preds = %13, %11, %7
  %17 = load ptr, ptr %2, align 8
  ret ptr %17
}

; Function Attrs: nounwind uwtable
define internal i32 @set_diff_algorithm(ptr noundef %0, ptr noundef %1) #0 {
  %3 = alloca i32, align 4
  %4 = alloca ptr, align 8
  %5 = alloca ptr, align 8
  %6 = alloca i64, align 8
  %7 = alloca i32, align 4
  store ptr %0, ptr %4, align 8, !tbaa !34
  store ptr %1, ptr %5, align 8, !tbaa !9
  call void @llvm.lifetime.start.p0(i64 8, ptr %6) #10
  %8 = load ptr, ptr %5, align 8, !tbaa !9
  %9 = call i64 @parse_algorithm_value(ptr noundef %8)
  store i64 %9, ptr %6, align 8, !tbaa !11
  %10 = load i64, ptr %6, align 8, !tbaa !11
  %11 = icmp slt i64 %10, 0
  br i1 %11, label %12, label %13

12:                                               ; preds = %2
  store i32 -1, ptr %3, align 4
  store i32 1, ptr %7, align 4
  br label %29

13:                                               ; preds = %2
  %14 = load ptr, ptr %4, align 8, !tbaa !34
  %15 = getelementptr inbounds nuw %struct.diff_options, ptr %14, i32 0, i32 39
  %16 = load i32, ptr %15, align 8, !tbaa !171
  %17 = and i32 %16, -2
  store i32 %17, ptr %15, align 8, !tbaa !171
  %18 = load ptr, ptr %4, align 8, !tbaa !34
  %19 = getelementptr inbounds nuw %struct.diff_options, ptr %18, i32 0, i32 39
  %20 = load i32, ptr %19, align 8, !tbaa !171
  %21 = and i32 %20, -49153
  store i32 %21, ptr %19, align 8, !tbaa !171
  %22 = load i64, ptr %6, align 8, !tbaa !11
  %23 = load ptr, ptr %4, align 8, !tbaa !34
  %24 = getelementptr inbounds nuw %struct.diff_options, ptr %23, i32 0, i32 39
  %25 = load i32, ptr %24, align 8, !tbaa !171
  %26 = sext i32 %25 to i64
  %27 = or i64 %26, %22
  %28 = trunc i64 %27 to i32
  store i32 %28, ptr %24, align 8, !tbaa !171
  store i32 0, ptr %3, align 4
  store i32 1, ptr %7, align 4
  br label %29

29:                                               ; preds = %13, %12
  call void @llvm.lifetime.end.p0(i64 8, ptr %6) #10
  %30 = load i32, ptr %3, align 4
  ret i32 %30
}

; Function Attrs: nounwind uwtable
define internal i32 @diff_opt_diff_algorithm(ptr noundef %0, ptr noundef %1, i32 noundef %2) #0 {
  %4 = alloca i32, align 4
  %5 = alloca ptr, align 8
  %6 = alloca ptr, align 8
  %7 = alloca i32, align 4
  %8 = alloca ptr, align 8
  %9 = alloca i32, align 4
  store ptr %0, ptr %5, align 8, !tbaa !217
  store ptr %1, ptr %6, align 8, !tbaa !9
  store i32 %2, ptr %7, align 4, !tbaa !16
  call void @llvm.lifetime.start.p0(i64 8, ptr %8) #10
  %10 = load ptr, ptr %5, align 8, !tbaa !217
  %11 = getelementptr inbounds nuw %struct.option, ptr %10, i32 0, i32 3
  %12 = load ptr, ptr %11, align 8, !tbaa !224
  store ptr %12, ptr %8, align 8, !tbaa !34
  br label %13

13:                                               ; preds = %3
  %14 = load i32, ptr %7, align 4, !tbaa !16
  %15 = icmp ne i32 %14, 0
  br i1 %15, label %16, label %17

16:                                               ; preds = %13
  call void (ptr, i32, ptr, ...) @BUG_fl(ptr noundef @.str.256, i32 noundef 5287, ptr noundef @.str.331) #12
  unreachable

17:                                               ; preds = %13
  br label %18

18:                                               ; preds = %17
  br label %19

19:                                               ; preds = %18
  %20 = load ptr, ptr %8, align 8, !tbaa !34
  %21 = load ptr, ptr %6, align 8, !tbaa !9
  %22 = call i32 @set_diff_algorithm(ptr noundef %20, ptr noundef %21)
  %23 = icmp ne i32 %22, 0
  br i1 %23, label %24, label %28

24:                                               ; preds = %19
  %25 = call ptr @_(ptr noundef @.str.345)
  %26 = call i32 (ptr, ...) @error(ptr noundef %25)
  %27 = call i32 @const_error()
  store i32 %27, ptr %4, align 4
  store i32 1, ptr %9, align 4
  br label %31

28:                                               ; preds = %19
  %29 = load ptr, ptr %8, align 8, !tbaa !34
  %30 = getelementptr inbounds nuw %struct.diff_options, ptr %29, i32 0, i32 40
  store i32 1, ptr %30, align 4, !tbaa !243
  store i32 0, ptr %4, align 4
  store i32 1, ptr %9, align 4
  br label %31

31:                                               ; preds = %28, %24
  call void @llvm.lifetime.end.p0(i64 8, ptr %8) #10
  %32 = load i32, ptr %4, align 4
  ret i32 %32
}