; Function Attrs: nounwind uwtable
define internal range(i32 -1, 1) i32 @diff_opt_diff_algorithm(ptr noundef readonly captures(none) %0, ptr noundef readonly %1, i32 noundef %2) #0 {
  %4 = getelementptr inbounds nuw i8, ptr %0, i64 16
  %5 = load ptr, ptr %4, align 8, !tbaa !215
  %.not = icmp eq i32 %2, 0
  br i1 %.not, label %7, label %6

6:                                                ; preds = %3
  tail call void (ptr, i32, ptr, ...) @BUG_fl(ptr noundef nonnull @.str.256, i32 noundef 5287, ptr noundef nonnull @.str.331) #34
  unreachable

7:                                                ; preds = %3
  %.not.i.i = icmp eq ptr %1, null
  br i1 %.not.i.i, label %18, label %8

8:                                                ; preds = %7
  %9 = tail call i32 @strcasecmp(ptr noundef nonnull readonly %1, ptr noundef nonnull @.str.3) #33
  %.not7.i.i = icmp eq i32 %9, 0
  br i1 %.not7.i.i, label %23, label %10

10:                                               ; preds = %8
  %11 = tail call i32 @strcasecmp(ptr noundef nonnull readonly %1, ptr noundef nonnull @.str.4) #33
  %.not8.i.i = icmp eq i32 %11, 0
  br i1 %.not8.i.i, label %23, label %12

12:                                               ; preds = %10
  %13 = tail call i32 @strcasecmp(ptr noundef nonnull readonly %1, ptr noundef nonnull @.str.5) #33
  %.not9.i.i = icmp eq i32 %13, 0
  br i1 %.not9.i.i, label %23, label %14

14:                                               ; preds = %12
  %15 = tail call i32 @strcasecmp(ptr noundef nonnull readonly %1, ptr noundef nonnull @.str.6) #33
  %.not10.i.i = icmp eq i32 %15, 0
  br i1 %.not10.i.i, label %23, label %16

16:                                               ; preds = %14
  %17 = tail call i32 @strcasecmp(ptr noundef nonnull readonly %1, ptr noundef nonnull @.str.7) #33
  %.not11.i.i = icmp eq i32 %17, 0
  br i1 %.not11.i.i, label %23, label %18

18:                                               ; preds = %16, %7
  %19 = load i32, ptr @git_gettext_enabled, align 4, !tbaa !11
  %.not4.i = icmp eq i32 %19, 0
  br i1 %.not4.i, label %_.exit, label %20

20:                                               ; preds = %18
  %21 = tail call ptr @dcgettext(ptr noundef null, ptr noundef nonnull @.str.345, i32 noundef 5) #32
  br label %_.exit

_.exit:                                           ; preds = %18, %20
  %.0.i6 = phi ptr [ %21, %20 ], [ @.str.345, %18 ]
  %22 = tail call i32 (ptr, ...) @error(ptr noundef %.0.i6) #32
  br label %29

23:                                               ; preds = %16, %14, %12, %10, %8
  %.0.i.ph.i = phi i32 [ 16384, %14 ], [ 1, %12 ], [ 0, %8 ], [ 0, %10 ], [ 32768, %16 ]
  %24 = getelementptr inbounds nuw i8, ptr %5, i64 352
  %25 = load i32, ptr %24, align 8, !tbaa !156
  %26 = and i32 %25, -49154
  %27 = or disjoint i32 %26, %.0.i.ph.i
  store i32 %27, ptr %24, align 8, !tbaa !156
  %28 = getelementptr inbounds nuw i8, ptr %5, i64 356
  store i32 1, ptr %28, align 4, !tbaa !232
  br label %29

29:                                               ; preds = %23, %_.exit
  %.0 = phi i32 [ -1, %_.exit ], [ 0, %23 ]
  ret i32 %.0
}